; Function Attrs: nounwind uwtable
define void @dt_bauhaus_widget_set_quad_active(ptr noundef %0, i32 noundef %1) local_unnamed_addr #0 {
  %3 = load atomic i64, ptr @dt_bh_get_type.static_g_define_type_id seq_cst, align 8
  %.not.i.i = icmp eq i64 %3, 0
  br i1 %.not.i.i, label %4, label %DT_BAUHAUS_WIDGET.exit

4:                                                ; preds = %2
  %5 = tail call i32 @g_once_init_enter(ptr noundef nonnull @dt_bh_get_type.static_g_define_type_id) #19
  %.not4.i.i = icmp eq i32 %5, 0
  br i1 %.not4.i.i, label %DT_BAUHAUS_WIDGET.exit, label %6

6:                                                ; preds = %4
  %7 = tail call fastcc i64 @dt_bh_get_type_once()
  tail call void @g_once_init_leave(ptr noundef nonnull @dt_bh_get_type.static_g_define_type_id, i64 noundef %7) #19
  br label %DT_BAUHAUS_WIDGET.exit

DT_BAUHAUS_WIDGET.exit:                           ; preds = %2, %4, %6
  %8 = load i64, ptr @dt_bh_get_type.static_g_define_type_id, align 8, !tbaa !6
  %9 = tail call ptr @g_type_check_instance_cast(ptr noundef %0, i64 noundef %8) #19
  %.not = icmp eq i32 %1, 0
  %10 = getelementptr inbounds nuw i8, ptr %9, i64 360
  %11 = load i32, ptr %10, align 8, !tbaa !197
  %12 = and i32 %11, -17
  %masksel = select i1 %.not, i32 0, i32 16
  %.sink = or disjoint i32 %12, %masksel
  store i32 %.sink, ptr %10, align 8, !tbaa !197
  %13 = tail call i64 @gtk_widget_get_type() #20
  %14 = tail call ptr @g_type_check_instance_cast(ptr noundef nonnull %9, i64 noundef %13) #19
  tail call void @gtk_widget_queue_draw(ptr noundef %14) #19
  ret void
}